target datalayout = "e-m:e-p270:32:32-p271:32:32-p272:64:64-i64:64-i128:128-f80:128-n8:16:32:64-S128"
target triple = "x86_64-pc-linux-gnu"

@rb_eRangeError = external global i64, align 8
@.str = private unnamed_addr constant [28 x i8] c"pack(U): value out of range\00", align 1

; Function Attrs: nounwind sspstrong uwtable
define dso_local i32 @rb_uv_to_utf8(ptr noundef nonnull %0, i64 noundef %1) #0 {
  %3 = alloca i32, align 4
  %4 = alloca ptr, align 8
  %5 = alloca i64, align 8
  store ptr %0, ptr %4, align 8, !tbaa !16
  store i64 %1, ptr %5, align 8, !tbaa !12
  %6 = load i64, ptr %5, align 8, !tbaa !12
  %7 = icmp ule i64 %6, 127
  br i1 %7, label %8, label %13

8:                                                ; preds = %2
  %9 = load i64, ptr %5, align 8, !tbaa !12
  %10 = trunc i64 %9 to i8
  %11 = load ptr, ptr %4, align 8, !tbaa !16
  %12 = getelementptr i8, ptr %11, i64 0
  store i8 %10, ptr %12, align 1, !tbaa !18
  store i32 1, ptr %3, align 4
  br label %190

13:                                               ; preds = %2
  %14 = load i64, ptr %5, align 8, !tbaa !12
  %15 = icmp ule i64 %14, 2047
  br i1 %15, label %16, label %32

16:                                               ; preds = %13
  %17 = load i64, ptr %5, align 8, !tbaa !12
  %18 = lshr i64 %17, 6
  %19 = and i64 %18, 255
  %20 = or i64 %19, 192
  %21 = and i64 %20, 255
  %22 = trunc i64 %21 to i8
  %23 = load ptr, ptr %4, align 8, !tbaa !16
  %24 = getelementptr i8, ptr %23, i64 0
  store i8 %22, ptr %24, align 1, !tbaa !18
  %25 = load i64, ptr %5, align 8, !tbaa !12
  %26 = and i64 %25, 63
  %27 = or i64 %26, 128
  %28 = and i64 %27, 255
  %29 = trunc i64 %28 to i8
  %30 = load ptr, ptr %4, align 8, !tbaa !16
  %31 = getelementptr i8, ptr %30, i64 1
  store i8 %29, ptr %31, align 1, !tbaa !18
  store i32 2, ptr %3, align 4
  br label %190

32:                                               ; preds = %13
  %33 = load i64, ptr %5, align 8, !tbaa !12
  %34 = icmp ule i64 %33, 65535
  br i1 %34, label %35, label %59

35:                                               ; preds = %32
  %36 = load i64, ptr %5, align 8, !tbaa !12
  %37 = lshr i64 %36, 12
  %38 = and i64 %37, 255
  %39 = or i64 %38, 224
  %40 = and i64 %39, 255
  %41 = trunc i64 %40 to i8
  %42 = load ptr, ptr %4, align 8, !tbaa !16
  %43 = getelementptr i8, ptr %42, i64 0
  store i8 %41, ptr %43, align 1, !tbaa !18
  %44 = load i64, ptr %5, align 8, !tbaa !12
  %45 = lshr i64 %44, 6
  %46 = and i64 %45, 63
  %47 = or i64 %46, 128
  %48 = and i64 %47, 255
  %49 = trunc i64 %48 to i8
  %50 = load ptr, ptr %4, align 8, !tbaa !16
  %51 = getelementptr i8, ptr %50, i64 1
  store i8 %49, ptr %51, align 1, !tbaa !18
  %52 = load i64, ptr %5, align 8, !tbaa !12
  %53 = and i64 %52, 63
  %54 = or i64 %53, 128
  %55 = and i64 %54, 255
  %56 = trunc i64 %55 to i8
  %57 = load ptr, ptr %4, align 8, !tbaa !16
  %58 = getelementptr i8, ptr %57, i64 2
  store i8 %56, ptr %58, align 1, !tbaa !18
  store i32 3, ptr %3, align 4
  br label %190

59:                                               ; preds = %32
  %60 = load i64, ptr %5, align 8, !tbaa !12
  %61 = icmp ule i64 %60, 2097151
  br i1 %61, label %62, label %94

62:                                               ; preds = %59
  %63 = load i64, ptr %5, align 8, !tbaa !12
  %64 = lshr i64 %63, 18
  %65 = and i64 %64, 255
  %66 = or i64 %65, 240
  %67 = and i64 %66, 255
  %68 = trunc i64 %67 to i8
  %69 = load ptr, ptr %4, align 8, !tbaa !16
  %70 = getelementptr i8, ptr %69, i64 0
  store i8 %68, ptr %70, align 1, !tbaa !18
  %71 = load i64, ptr %5, align 8, !tbaa !12
  %72 = lshr i64 %71, 12
  %73 = and i64 %72, 63
  %74 = or i64 %73, 128
  %75 = and i64 %74, 255
  %76 = trunc i64 %75 to i8
  %77 = load ptr, ptr %4, align 8, !tbaa !16
  %78 = getelementptr i8, ptr %77, i64 1
  store i8 %76, ptr %78, align 1, !tbaa !18
  %79 = load i64, ptr %5, align 8, !tbaa !12
  %80 = lshr i64 %79, 6
  %81 = and i64 %80, 63
  %82 = or i64 %81, 128
  %83 = and i64 %82, 255
  %84 = trunc i64 %83 to i8
  %85 = load ptr, ptr %4, align 8, !tbaa !16
  %86 = getelementptr i8, ptr %85, i64 2
  store i8 %84, ptr %86, align 1, !tbaa !18
  %87 = load i64, ptr %5, align 8, !tbaa !12
  %88 = and i64 %87, 63
  %89 = or i64 %88, 128
  %90 = and i64 %89, 255
  %91 = trunc i64 %90 to i8
  %92 = load ptr, ptr %4, align 8, !tbaa !16
  %93 = getelementptr i8, ptr %92, i64 3
  store i8 %91, ptr %93, align 1, !tbaa !18
  store i32 4, ptr %3, align 4
  br label %190

94:                                               ; preds = %59
  %95 = load i64, ptr %5, align 8, !tbaa !12
  %96 = icmp ule i64 %95, 67108863
  br i1 %96, label %97, label %137

97:                                               ; preds = %94
  %98 = load i64, ptr %5, align 8, !tbaa !12
  %99 = lshr i64 %98, 24
  %100 = and i64 %99, 255
  %101 = or i64 %100, 248
  %102 = and i64 %101, 255
  %103 = trunc i64 %102 to i8
  %104 = load ptr, ptr %4, align 8, !tbaa !16
  %105 = getelementptr i8, ptr %104, i64 0
  store i8 %103, ptr %105, align 1, !tbaa !18
  %106 = load i64, ptr %5, align 8, !tbaa !12
  %107 = lshr i64 %106, 18
  %108 = and i64 %107, 63
  %109 = or i64 %108, 128
  %110 = and i64 %109, 255
  %111 = trunc i64 %110 to i8
  %112 = load ptr, ptr %4, align 8, !tbaa !16
  %113 = getelementptr i8, ptr %112, i64 1
  store i8 %111, ptr %113, align 1, !tbaa !18
  %114 = load i64, ptr %5, align 8, !tbaa !12
  %115 = lshr i64 %114, 12
  %116 = and i64 %115, 63
  %117 = or i64 %116, 128
  %118 = and i64 %117, 255
  %119 = trunc i64 %118 to i8
  %120 = load ptr, ptr %4, align 8, !tbaa !16
  %121 = getelementptr i8, ptr %120, i64 2
  store i8 %119, ptr %121, align 1, !tbaa !18
  %122 = load i64, ptr %5, align 8, !tbaa !12
  %123 = lshr i64 %122, 6
  %124 = and i64 %123, 63
  %125 = or i64 %124, 128
  %126 = and i64 %125, 255
  %127 = trunc i64 %126 to i8
  %128 = load ptr, ptr %4, align 8, !tbaa !16
  %129 = getelementptr i8, ptr %128, i64 3
  store i8 %127, ptr %129, align 1, !tbaa !18
  %130 = load i64, ptr %5, align 8, !tbaa !12
  %131 = and i64 %130, 63
  %132 = or i64 %131, 128
  %133 = and i64 %132, 255
  %134 = trunc i64 %133 to i8
  %135 = load ptr, ptr %4, align 8, !tbaa !16
  %136 = getelementptr i8, ptr %135, i64 4
  store i8 %134, ptr %136, align 1, !tbaa !18
  store i32 5, ptr %3, align 4
  br label %190

137:                                              ; preds = %94
  %138 = load i64, ptr %5, align 8, !tbaa !12
  %139 = icmp ule i64 %138, 2147483647
  br i1 %139, label %140, label %188

140:                                              ; preds = %137
  %141 = load i64, ptr %5, align 8, !tbaa !12
  %142 = lshr i64 %141, 30
  %143 = and i64 %142, 255
  %144 = or i64 %143, 252
  %145 = and i64 %144, 255
  %146 = trunc i64 %145 to i8
  %147 = load ptr, ptr %4, align 8, !tbaa !16
  %148 = getelementptr i8, ptr %147, i64 0
  store i8 %146, ptr %148, align 1, !tbaa !18
  %149 = load i64, ptr %5, align 8, !tbaa !12
  %150 = lshr i64 %149, 24
  %151 = and i64 %150, 63
  %152 = or i64 %151, 128
  %153 = and i64 %152, 255
  %154 = trunc i64 %153 to i8
  %155 = load ptr, ptr %4, align 8, !tbaa !16
  %156 = getelementptr i8, ptr %155, i64 1
  store i8 %154, ptr %156, align 1, !tbaa !18
  %157 = load i64, ptr %5, align 8, !tbaa !12
  %158 = lshr i64 %157, 18
  %159 = and i64 %158, 63
  %160 = or i64 %159, 128
  %161 = and i64 %160, 255
  %162 = trunc i64 %161 to i8
  %163 = load ptr, ptr %4, align 8, !tbaa !16
  %164 = getelementptr i8, ptr %163, i64 2
  store i8 %162, ptr %164, align 1, !tbaa !18
  %165 = load i64, ptr %5, align 8, !tbaa !12
  %166 = lshr i64 %165, 12
  %167 = and i64 %166, 63
  %168 = or i64 %167, 128
  %169 = and i64 %168, 255
  %170 = trunc i64 %169 to i8
  %171 = load ptr, ptr %4, align 8, !tbaa !16
  %172 = getelementptr i8, ptr %171, i64 3
  store i8 %170, ptr %172, align 1, !tbaa !18
  %173 = load i64, ptr %5, align 8, !tbaa !12
  %174 = lshr i64 %173, 6
  %175 = and i64 %174, 63
  %176 = or i64 %175, 128
  %177 = and i64 %176, 255
  %178 = trunc i64 %177 to i8
  %179 = load ptr, ptr %4, align 8, !tbaa !16
  %180 = getelementptr i8, ptr %179, i64 4
  store i8 %178, ptr %180, align 1, !tbaa !18
  %181 = load i64, ptr %5, align 8, !tbaa !12
  %182 = and i64 %181, 63
  %183 = or i64 %182, 128
  %184 = and i64 %183, 255
  %185 = trunc i64 %184 to i8
  %186 = load ptr, ptr %4, align 8, !tbaa !16
  %187 = getelementptr i8, ptr %186, i64 5
  store i8 %185, ptr %187, align 1, !tbaa !18
  store i32 6, ptr %3, align 4
  br label %190

188:                                              ; preds = %137
  %189 = load i64, ptr @rb_eRangeError, align 8, !tbaa !12
  call void (i64, ptr, ...) @rb_raise(i64 noundef %189, ptr noundef @.str) #23
  unreachable

190:                                              ; preds = %140, %97, %62, %35, %16, %8
  %191 = load i32, ptr %3, align 4
  ret i32 %191
}