; Function Attrs: nounwind sspstrong uwtable
define dso_local range(i32 1, 7) i32 @rb_uv_to_utf8(ptr noundef nonnull writeonly captures(none) %0, i64 noundef %1) local_unnamed_addr #0 {
  %3 = icmp ult i64 %1, 128
  br i1 %3, label %4, label %6

4:                                                ; preds = %2
  %5 = trunc nuw nsw i64 %1 to i8
  store i8 %5, ptr %0, align 1, !tbaa !26
  br label %108

6:                                                ; preds = %2
  %7 = icmp ult i64 %1, 2048
  br i1 %7, label %8, label %16

8:                                                ; preds = %6
  %9 = lshr i64 %1, 6
  %10 = trunc nuw i64 %9 to i8
  %11 = or disjoint i8 %10, -64
  store i8 %11, ptr %0, align 1, !tbaa !26
  %12 = trunc i64 %1 to i8
  %13 = and i8 %12, 63
  %14 = or disjoint i8 %13, -128
  %15 = getelementptr i8, ptr %0, i64 1
  store i8 %14, ptr %15, align 1, !tbaa !26
  br label %108

16:                                               ; preds = %6
  %17 = icmp ult i64 %1, 65536
  br i1 %17, label %18, label %31

18:                                               ; preds = %16
  %19 = lshr i64 %1, 12
  %20 = trunc nuw i64 %19 to i8
  %21 = or disjoint i8 %20, -32
  store i8 %21, ptr %0, align 1, !tbaa !26
  %22 = lshr i64 %1, 6
  %23 = trunc i64 %22 to i8
  %24 = and i8 %23, 63
  %25 = or disjoint i8 %24, -128
  %26 = getelementptr i8, ptr %0, i64 1
  store i8 %25, ptr %26, align 1, !tbaa !26
  %27 = trunc i64 %1 to i8
  %28 = and i8 %27, 63
  %29 = or disjoint i8 %28, -128
  %30 = getelementptr i8, ptr %0, i64 2
  store i8 %29, ptr %30, align 1, !tbaa !26
  br label %108

31:                                               ; preds = %16
  %32 = icmp ult i64 %1, 2097152
  br i1 %32, label %33, label %51

33:                                               ; preds = %31
  %34 = lshr i64 %1, 18
  %35 = trunc nuw i64 %34 to i8
  %36 = or disjoint i8 %35, -16
  store i8 %36, ptr %0, align 1, !tbaa !26
  %37 = lshr i64 %1, 12
  %38 = trunc i64 %37 to i8
  %39 = and i8 %38, 63
  %40 = or disjoint i8 %39, -128
  %41 = getelementptr i8, ptr %0, i64 1
  store i8 %40, ptr %41, align 1, !tbaa !26
  %42 = lshr i64 %1, 6
  %43 = trunc i64 %42 to i8
  %44 = and i8 %43, 63
  %45 = or disjoint i8 %44, -128
  %46 = getelementptr i8, ptr %0, i64 2
  store i8 %45, ptr %46, align 1, !tbaa !26
  %47 = trunc i64 %1 to i8
  %48 = and i8 %47, 63
  %49 = or disjoint i8 %48, -128
  %50 = getelementptr i8, ptr %0, i64 3
  store i8 %49, ptr %50, align 1, !tbaa !26
  br label %108

51:                                               ; preds = %31
  %52 = icmp ult i64 %1, 67108864
  br i1 %52, label %53, label %76

53:                                               ; preds = %51
  %54 = lshr i64 %1, 24
  %55 = trunc nuw i64 %54 to i8
  %56 = or disjoint i8 %55, -8
  store i8 %56, ptr %0, align 1, !tbaa !26
  %57 = lshr i64 %1, 18
  %58 = trunc nuw i64 %57 to i8
  %59 = and i8 %58, 63
  %60 = or disjoint i8 %59, -128
  %61 = getelementptr i8, ptr %0, i64 1
  store i8 %60, ptr %61, align 1, !tbaa !26
  %62 = lshr i64 %1, 12
  %63 = trunc i64 %62 to i8
  %64 = and i8 %63, 63
  %65 = or disjoint i8 %64, -128
  %66 = getelementptr i8, ptr %0, i64 2
  store i8 %65, ptr %66, align 1, !tbaa !26
  %67 = lshr i64 %1, 6
  %68 = trunc i64 %67 to i8
  %69 = and i8 %68, 63
  %70 = or disjoint i8 %69, -128
  %71 = getelementptr i8, ptr %0, i64 3
  store i8 %70, ptr %71, align 1, !tbaa !26
  %72 = trunc i64 %1 to i8
  %73 = and i8 %72, 63
  %74 = or disjoint i8 %73, -128
  %75 = getelementptr i8, ptr %0, i64 4
  store i8 %74, ptr %75, align 1, !tbaa !26
  br label %108

76:                                               ; preds = %51
  %77 = icmp ult i64 %1, 2147483648
  br i1 %77, label %78, label %106

78:                                               ; preds = %76
  %79 = lshr i64 %1, 30
  %80 = trunc nuw i64 %79 to i8
  %81 = or disjoint i8 %80, -4
  store i8 %81, ptr %0, align 1, !tbaa !26
  %82 = lshr i64 %1, 24
  %83 = trunc nuw i64 %82 to i8
  %84 = and i8 %83, 63
  %85 = or disjoint i8 %84, -128
  %86 = getelementptr i8, ptr %0, i64 1
  store i8 %85, ptr %86, align 1, !tbaa !26
  %87 = lshr i64 %1, 18
  %88 = trunc i64 %87 to i8
  %89 = and i8 %88, 63
  %90 = or disjoint i8 %89, -128
  %91 = getelementptr i8, ptr %0, i64 2
  store i8 %90, ptr %91, align 1, !tbaa !26
  %92 = lshr i64 %1, 12
  %93 = trunc i64 %92 to i8
  %94 = and i8 %93, 63
  %95 = or disjoint i8 %94, -128
  %96 = getelementptr i8, ptr %0, i64 3
  store i8 %95, ptr %96, align 1, !tbaa !26
  %97 = lshr i64 %1, 6
  %98 = trunc i64 %97 to i8
  %99 = and i8 %98, 63
  %100 = or disjoint i8 %99, -128
  %101 = getelementptr i8, ptr %0, i64 4
  store i8 %100, ptr %101, align 1, !tbaa !26
  %102 = trunc i64 %1 to i8
  %103 = and i8 %102, 63
  %104 = or disjoint i8 %103, -128
  %105 = getelementptr i8, ptr %0, i64 5
  store i8 %104, ptr %105, align 1, !tbaa !26
  br label %108

106:                                              ; preds = %76
  %107 = load i64, ptr @rb_eRangeError, align 8, !tbaa !7
  tail call void (i64, ptr, ...) @rb_raise(i64 noundef %107, ptr noundef nonnull @.str) #14
  unreachable

108:                                              ; preds = %78, %53, %33, %18, %8, %4
  %.0 = phi i32 [ 1, %4 ], [ 2, %8 ], [ 3, %18 ], [ 4, %33 ], [ 5, %53 ], [ 6, %78 ]
  ret i32 %.0
}